ccopy_reg
_reconstructor
p0
(cgoogle.oauth2.credentials
Credentials
p1
c__builtin__
object
p2
Ntp3
Rp4
(dp5
S'_token_uri'
p6
Vhttps://oauth2.googleapis.com/token
p7
sS'_client_secret'
p8
VWpTO_sadsIxvFuH6O2D-cQRc
p9
sS'_id_token'
p10
NsS'token'
p11
Vya29.Glu1BqRuW5WH3bpJcz-aIY2Oqs8j4dWmkuRhJY6cRhlMmqrraoZJep8PgyZdanGSZAU9GgPbNJTV3jpGxjoeGcLaOTrr_335TwWnrwTc_dKaQaFPIicb8Uh-PFFH
p12
sS'_refresh_token'
p13
V1/OcK5nqn10cWZOO61PwgQGGoWwGXq4jZlt_d2f9byad8
p14
sS'_scopes'
p15
(lp16
S'https://www.googleapis.com/auth/spreadsheets.readonly'
p17
asS'_client_id'
p18
V768832904103-4uot6vasdrll0jtjrdl3rapcn28btht1.apps.googleusercontent.com
p19
sS'expiry'
p20
cdatetime
datetime
p21
(S'\x07\xe3\x02\x13\x0f\x10\x15\x0c\xcdX'
p22
tp23
Rp24
sb.